target datalayout = "e-m:e-p270:32:32-p271:32:32-p272:64:64-i64:64-i128:128-f80:128-n8:16:32:64-S128"
target triple = "x86_64-pc-linux-gnu"

%"class.cv::gimpl::GThreadedExecutor::Input" = type { %"struct.cv::gimpl::GIslandExecutable::IInput", ptr }
%"struct.cv::gimpl::GIslandExecutable::IInput" = type { ptr, %"class.cv::gimpl::GIslandExecutable::IODesc" }
%"class.cv::gimpl::GIslandExecutable::IODesc" = type { %"class.std::vector" }
%"class.std::vector" = type { %"struct.std::_Vector_base" }
%"struct.std::_Vector_base" = type { %"struct.std::_Vector_base<cv::gimpl::RcDesc, std::allocator<cv::gimpl::RcDesc>>::_Vector_impl" }
%"struct.std::_Vector_base<cv::gimpl::RcDesc, std::allocator<cv::gimpl::RcDesc>>::_Vector_impl" = type { %"struct.std::_Vector_base<cv::gimpl::RcDesc, std::allocator<cv::gimpl::RcDesc>>::_Vector_impl_data" }
%"struct.std::_Vector_base<cv::gimpl::RcDesc, std::allocator<cv::gimpl::RcDesc>>::_Vector_impl_data" = type { ptr, ptr, ptr }

; Function Attrs: mustprogress nounwind uwtable
define linkonce_odr hidden void @_ZNSt15__new_allocatorIN2cv5gimpl6RcDescEEC2Ev(ptr noundef nonnull align 1 dereferenceable(1) %0) unnamed_addr #6 comdat align 2 {
  %2 = alloca ptr, align 8
  store ptr %0, ptr %2, align 8, !tbaa !508
  ret void
}

; Function Attrs: mustprogress nounwind uwtable
define linkonce_odr hidden void @_ZNSt12_Vector_baseIN2cv5gimpl6RcDescESaIS2_EE17_Vector_impl_dataC2Ev(ptr noundef nonnull align 8 dereferenceable(24) %0) unnamed_addr #6 comdat align 2 {
  %2 = alloca ptr, align 8
  store ptr %0, ptr %2, align 8, !tbaa !1221
  %3 = load ptr, ptr %2, align 8
  %4 = getelementptr inbounds nuw %"struct.std::_Vector_base<cv::gimpl::RcDesc, std::allocator<cv::gimpl::RcDesc>>::_Vector_impl_data", ptr %3, i32 0, i32 0
  store ptr null, ptr %4, align 8, !tbaa !79
  %5 = getelementptr inbounds nuw %"struct.std::_Vector_base<cv::gimpl::RcDesc, std::allocator<cv::gimpl::RcDesc>>::_Vector_impl_data", ptr %3, i32 0, i32 1
  store ptr null, ptr %5, align 8, !tbaa !255
  %6 = getelementptr inbounds nuw %"struct.std::_Vector_base<cv::gimpl::RcDesc, std::allocator<cv::gimpl::RcDesc>>::_Vector_impl_data", ptr %3, i32 0, i32 2
  store ptr null, ptr %6, align 8, !tbaa !256
  ret void
}

; Function Attrs: mustprogress nounwind uwtable
define linkonce_odr hidden void @_ZNSaIN2cv5gimpl6RcDescEEC2Ev(ptr noundef nonnull align 1 dereferenceable(1) %0) unnamed_addr #6 comdat align 2 {
  %2 = alloca ptr, align 8
  store ptr %0, ptr %2, align 8, !tbaa !504
  %3 = load ptr, ptr %2, align 8
  call void @_ZNSt15__new_allocatorIN2cv5gimpl6RcDescEEC2Ev(ptr noundef nonnull align 1 dereferenceable(1) %3) #3
  ret void
}

; Function Attrs: mustprogress nounwind uwtable
define linkonce_odr hidden void @_ZNSt12_Vector_baseIN2cv5gimpl6RcDescESaIS2_EE12_Vector_implC2Ev(ptr noundef nonnull align 8 dereferenceable(24) %0) unnamed_addr #6 comdat align 2 {
  %2 = alloca ptr, align 8
  store ptr %0, ptr %2, align 8, !tbaa !1219
  %3 = load ptr, ptr %2, align 8
  call void @_ZNSaIN2cv5gimpl6RcDescEEC2Ev(ptr noundef nonnull align 1 dereferenceable(1) %3) #3
  call void @_ZNSt12_Vector_baseIN2cv5gimpl6RcDescESaIS2_EE17_Vector_impl_dataC2Ev(ptr noundef nonnull align 8 dereferenceable(24) %3) #3
  ret void
}

; Function Attrs: mustprogress nounwind uwtable
define linkonce_odr hidden void @_ZNSt12_Vector_baseIN2cv5gimpl6RcDescESaIS2_EEC2Ev(ptr noundef nonnull align 8 dereferenceable(24) %0) unnamed_addr #6 comdat align 2 {
  %2 = alloca ptr, align 8
  store ptr %0, ptr %2, align 8, !tbaa !506
  %3 = load ptr, ptr %2, align 8
  %4 = getelementptr inbounds nuw %"struct.std::_Vector_base", ptr %3, i32 0, i32 0
  call void @_ZNSt12_Vector_baseIN2cv5gimpl6RcDescESaIS2_EE12_Vector_implC2Ev(ptr noundef nonnull align 8 dereferenceable(24) %4) #3
  ret void
}

; Function Attrs: mustprogress nounwind uwtable
define linkonce_odr hidden void @_ZNSt6vectorIN2cv5gimpl6RcDescESaIS2_EEC2Ev(ptr noundef nonnull align 8 dereferenceable(24) %0) unnamed_addr #6 comdat align 2 {
  %2 = alloca ptr, align 8
  store ptr %0, ptr %2, align 8, !tbaa !18
  %3 = load ptr, ptr %2, align 8
  call void @_ZNSt12_Vector_baseIN2cv5gimpl6RcDescESaIS2_EEC2Ev(ptr noundef nonnull align 8 dereferenceable(24) %3) #3
  ret void
}

; Function Attrs: inlinehint mustprogress nounwind uwtable
define linkonce_odr hidden void @_ZN2cv5gimpl17GIslandExecutable6IODescC2Ev(ptr noundef nonnull align 8 dereferenceable(24) %0) unnamed_addr #7 comdat align 2 {
  %2 = alloca ptr, align 8
  store ptr %0, ptr %2, align 8, !tbaa !29
  %3 = load ptr, ptr %2, align 8
  %4 = getelementptr inbounds nuw %"class.cv::gimpl::GIslandExecutable::IODesc", ptr %3, i32 0, i32 0
  call void @_ZNSt6vectorIN2cv5gimpl6RcDescESaIS2_EEC2Ev(ptr noundef nonnull align 8 dereferenceable(24) %4) #3
  ret void
}

; Function Attrs: mustprogress uwtable
define linkonce_odr hidden void @_ZN2cv5gimpl17GIslandExecutable6IODesc3setERKSt6vectorINS0_6RcDescESaIS4_EE(ptr noundef nonnull align 8 dereferenceable(24) %0, ptr noundef nonnull align 8 dereferenceable(24) %1) #4 comdat align 2 {
  %3 = alloca ptr, align 8
  %4 = alloca ptr, align 8
  store ptr %0, ptr %3, align 8, !tbaa !29
  store ptr %1, ptr %4, align 8, !tbaa !18
  %5 = load ptr, ptr %3, align 8
  %6 = load ptr, ptr %4, align 8, !tbaa !18
  %7 = getelementptr inbounds nuw %"class.cv::gimpl::GIslandExecutable::IODesc", ptr %5, i32 0, i32 0
  %8 = call noundef nonnull align 8 dereferenceable(24) ptr @_ZNSt6vectorIN2cv5gimpl6RcDescESaIS2_EEaSERKS4_(ptr noundef nonnull align 8 dereferenceable(24) %7, ptr noundef nonnull align 8 dereferenceable(24) %6)
  ret void
}

; Function Attrs: inlinehint mustprogress nounwind uwtable
define linkonce_odr hidden void @_ZN2cv5gimpl17GIslandExecutable6IInputC2Ev(ptr noundef nonnull align 8 dereferenceable(32) %0) unnamed_addr #7 comdat align 2 {
  %2 = alloca ptr, align 8
  store ptr %0, ptr %2, align 8, !tbaa !52
  %3 = load ptr, ptr %2, align 8
  %4 = getelementptr inbounds i8, ptr %3, i64 8
  call void @_ZN2cv5gimpl17GIslandExecutable6IODescC2Ev(ptr noundef nonnull align 8 dereferenceable(24) %4) #3
  store ptr getelementptr inbounds inrange(-16, 32) ({ [6 x ptr] }, ptr @_ZTVN2cv5gimpl17GIslandExecutable6IInputE, i32 0, i32 0, i32 2), ptr %3, align 8, !tbaa !50
  ret void
}

; Function Attrs: mustprogress uwtable
define hidden void @_ZN2cv5gimpl17GThreadedExecutor5InputC2ERNS0_10GraphStateERKSt6vectorINS0_6RcDescESaIS6_EE(ptr noundef nonnull align 8 dereferenceable(40) %0, ptr noundef nonnull align 8 dereferenceable(936) %1, ptr noundef nonnull align 8 dereferenceable(24) %2) unnamed_addr #4 align 2 personality ptr @__gxx_personality_v0 {
  %4 = alloca ptr, align 8
  %5 = alloca ptr, align 8
  %6 = alloca ptr, align 8
  %7 = alloca ptr, align 8
  %8 = alloca i32, align 4
  store ptr %0, ptr %4, align 8, !tbaa !3
  store ptr %1, ptr %5, align 8, !tbaa !49
  store ptr %2, ptr %6, align 8, !tbaa !18
  %9 = load ptr, ptr %4, align 8
  call void @_ZN2cv5gimpl17GIslandExecutable6IInputC2Ev(ptr noundef nonnull align 8 dereferenceable(32) %9) #3
  store ptr getelementptr inbounds inrange(-16, 32) ({ [6 x ptr] }, ptr @_ZTVN2cv5gimpl17GThreadedExecutor5InputE, i32 0, i32 0, i32 2), ptr %9, align 8, !tbaa !50
  %10 = getelementptr inbounds nuw %"class.cv::gimpl::GThreadedExecutor::Input", ptr %9, i32 0, i32 1
  %11 = load ptr, ptr %5, align 8, !tbaa !49
  store ptr %11, ptr %10, align 8, !tbaa !49
  %12 = getelementptr inbounds i8, ptr %9, i64 8
  %13 = load ptr, ptr %6, align 8, !tbaa !18
  invoke void @_ZN2cv5gimpl17GIslandExecutable6IODesc3setERKSt6vectorINS0_6RcDescESaIS4_EE(ptr noundef nonnull align 8 dereferenceable(24) %12, ptr noundef nonnull align 8 dereferenceable(24) %13)
          to label %14 unwind label %15

14:                                               ; preds = %3
  ret void

15:                                               ; preds = %3
  %16 = landingpad { ptr, i32 }
          cleanup
  %17 = extractvalue { ptr, i32 } %16, 0
  store ptr %17, ptr %7, align 8
  %18 = extractvalue { ptr, i32 } %16, 1
  store i32 %18, ptr %8, align 4
  call void @_ZN2cv5gimpl17GIslandExecutable6IInputD2Ev(ptr noundef nonnull align 8 dereferenceable(32) %9) #3
  br label %19

19:                                               ; preds = %15
  %20 = load ptr, ptr %7, align 8
  %21 = load i32, ptr %8, align 4
  %22 = insertvalue { ptr, i32 } poison, ptr %20, 0
  %23 = insertvalue { ptr, i32 } %22, i32 %21, 1
  resume { ptr, i32 } %23
}