; Function Attrs: mustprogress uwtable
define hidden void @_ZN2cv5gimpl17GThreadedExecutor5InputC2ERNS0_10GraphStateERKSt6vectorINS0_6RcDescESaIS6_EE(ptr noundef nonnull align 8 dereferenceable(40) initializes((0, 40)) %0, ptr noundef nonnull align 8 dereferenceable(936) %1, ptr noundef nonnull align 8 dereferenceable(24) %2) unnamed_addr #3 align 2 personality ptr @__gxx_personality_v0 {
  %4 = getelementptr inbounds nuw i8, ptr %0, i64 8
  tail call void @llvm.memset.p0.i64(ptr noundef nonnull align 8 dereferenceable(24) %4, i8 0, i64 24, i1 false)
  store ptr getelementptr inbounds nuw inrange(-16, 32) (i8, ptr @_ZTVN2cv5gimpl17GThreadedExecutor5InputE, i64 16), ptr %0, align 8, !tbaa !33
  %5 = getelementptr inbounds nuw i8, ptr %0, i64 32
  store ptr %1, ptr %5, align 8, !tbaa !50
  %6 = invoke noundef nonnull align 8 dereferenceable(24) ptr @_ZNSt6vectorIN2cv5gimpl6RcDescESaIS2_EEaSERKS4_(ptr noundef nonnull align 8 dereferenceable(24) %4, ptr noundef nonnull align 8 dereferenceable(24) %2)
          to label %_ZN2cv5gimpl17GIslandExecutable6IODesc3setERKSt6vectorINS0_6RcDescESaIS4_EE.exit unwind label %7

_ZN2cv5gimpl17GIslandExecutable6IODesc3setERKSt6vectorINS0_6RcDescESaIS4_EE.exit: ; preds = %3
  ret void

7:                                                ; preds = %3
  %8 = landingpad { ptr, i32 }
          cleanup
  tail call void @_ZN2cv5gimpl17GIslandExecutable6IInputD2Ev(ptr noundef nonnull align 8 dereferenceable(32) %0) #26
  resume { ptr, i32 } %8
}